; Function Attrs: mustprogress uwtable
define hidden noundef zeroext i1 @_ZNK7datalog13udoc_relation13contains_factERKNS_13relation_factE(ptr noundef nonnull readonly align 8 captures(none) dereferenceable(128) %0, ptr noundef nonnull readonly align 8 captures(none) dereferenceable(16) %1) unnamed_addr #3 align 2 personality ptr @__gxx_personality_v0 {
  %3 = alloca %class.doc_ref, align 8
  call void @llvm.lifetime.start.p0(i64 16, ptr nonnull %3) #24
  %4 = getelementptr inbounds nuw i8, ptr %0, i64 32
  %5 = load ptr, ptr %4, align 8, !tbaa !144
  %6 = tail call noundef ptr @_ZNK7datalog13udoc_relation8fact2docERKNS_13relation_factE(ptr noundef nonnull align 8 dereferenceable(128) %0, ptr noundef nonnull align 8 dereferenceable(16) %1)
  store ptr %5, ptr %3, align 8, !tbaa !30
  %7 = getelementptr inbounds nuw i8, ptr %3, i64 8
  store ptr %6, ptr %7, align 8, !tbaa !186
  %8 = getelementptr inbounds nuw i8, ptr %0, i64 40
  %9 = load ptr, ptr %4, align 8, !tbaa !144
  %10 = getelementptr inbounds nuw i8, ptr %0, i64 48
  %11 = load i32, ptr %10, align 8, !tbaa !35
  %.not9.not.i = icmp eq i32 %11, 0
  br i1 %.not9.not.i, label %_ZNK10union_bvecI11doc_manager3docE8containsERS0_RS1_.exit, label %.lr.ph.i

12:                                               ; preds = %.noexc
  %indvars.iv.next.i = add nuw nsw i64 %indvars.iv.i, 1
  %13 = load i32, ptr %10, align 8, !tbaa !35
  %14 = zext i32 %13 to i64
  %.not.i = icmp samesign ult i64 %indvars.iv.next.i, %14
  br i1 %.not.i, label %.lr.ph.i, label %_ZNK10union_bvecI11doc_manager3docE8containsERS0_RS1_.exit.thread, !llvm.loop !188

.lr.ph.i:                                         ; preds = %2, %12
  %indvars.iv.i = phi i64 [ %indvars.iv.next.i, %12 ], [ 0, %2 ]
  %15 = load ptr, ptr %8, align 8, !tbaa !32
  %16 = getelementptr inbounds nuw ptr, ptr %15, i64 %indvars.iv.i
  %17 = load ptr, ptr %16, align 8, !tbaa !148
  %18 = invoke noundef zeroext i1 @_ZNK11doc_manager8containsERK3docS2_(ptr noundef nonnull align 8 dereferenceable(1080) %9, ptr noundef nonnull align 8 dereferenceable(88) %17, ptr noundef nonnull align 8 dereferenceable(88) %6)
          to label %.noexc unwind label %22

.noexc:                                           ; preds = %.lr.ph.i
  br i1 %18, label %_ZNK10union_bvecI11doc_manager3docE8containsERS0_RS1_.exit.thread, label %12

_ZNK10union_bvecI11doc_manager3docE8containsERS0_RS1_.exit: ; preds = %2
  %.not.i3 = icmp eq ptr %6, null
  br i1 %.not.i3, label %_ZN7doc_refD2Ev.exit, label %_ZNK10union_bvecI11doc_manager3docE8containsERS0_RS1_.exit.thread

_ZNK10union_bvecI11doc_manager3docE8containsERS0_RS1_.exit.thread: ; preds = %12, %.noexc, %_ZNK10union_bvecI11doc_manager3docE8containsERS0_RS1_.exit
  %.not.lcssa.i6 = phi i1 [ false, %_ZNK10union_bvecI11doc_manager3docE8containsERS0_RS1_.exit ], [ %18, %.noexc ], [ %18, %12 ]
  invoke void @_ZN11doc_manager10deallocateEP3doc(ptr noundef nonnull align 8 dereferenceable(1080) %5, ptr noundef nonnull %6)
          to label %_ZN7doc_refD2Ev.exit unwind label %19

19:                                               ; preds = %_ZNK10union_bvecI11doc_manager3docE8containsERS0_RS1_.exit.thread
  %20 = landingpad { ptr, i32 }
          catch ptr null
  %21 = extractvalue { ptr, i32 } %20, 0
  tail call void @__clang_call_terminate(ptr %21) #26
  unreachable

_ZN7doc_refD2Ev.exit:                             ; preds = %_ZNK10union_bvecI11doc_manager3docE8containsERS0_RS1_.exit, %_ZNK10union_bvecI11doc_manager3docE8containsERS0_RS1_.exit.thread
  %.not.lcssa.i7 = phi i1 [ false, %_ZNK10union_bvecI11doc_manager3docE8containsERS0_RS1_.exit ], [ %.not.lcssa.i6, %_ZNK10union_bvecI11doc_manager3docE8containsERS0_RS1_.exit.thread ]
  call void @llvm.lifetime.end.p0(i64 16, ptr nonnull %3) #24
  ret i1 %.not.lcssa.i7

22:                                               ; preds = %.lr.ph.i
  %23 = landingpad { ptr, i32 }
          cleanup
  call void @_ZN7doc_refD2Ev(ptr noundef nonnull align 8 dereferenceable(16) %3) #24
  call void @llvm.lifetime.end.p0(i64 16, ptr nonnull %3) #24
  resume { ptr, i32 } %23
}